target datalayout = "e-m:e-p270:32:32-p271:32:32-p272:64:64-i64:64-i128:128-f80:128-n8:16:32:64-S128"
target triple = "x86_64-pc-linux-gnu"

%struct.ossl_param_st = type { ptr, i32, ptr, i64, i64 }
%struct.blake2b_md_data_st = type { %struct.blake2b_ctx_st, %struct.blake2b_param_st }
%struct.blake2b_ctx_st = type { [8 x i64], [2 x i64], [2 x i64], [128 x i8], i64, i64 }
%struct.blake2b_param_st = type { i8, i8, i8, i8, [4 x i8], [8 x i8], i8, i8, [14 x i8], [16 x i8], [16 x i8] }

@.str = private unnamed_addr constant [5 x i8] c"size\00", align 1
@.str.1 = private unnamed_addr constant [59 x i8] c"../openssl/providers/implementations/digests/blake2_prov.c\00", align 1
@__func__.ossl_blake2b_set_ctx_params = private unnamed_addr constant [28 x i8] c"ossl_blake2b_set_ctx_params\00", align 1

; Function Attrs: inlinehint nounwind uwtable
define internal i32 @ossl_param_is_empty(ptr noundef %0) #2 {
  %2 = alloca ptr, align 8
  store ptr %0, ptr %2, align 8, !tbaa !7
  %3 = load ptr, ptr %2, align 8, !tbaa !7
  %4 = icmp eq ptr %3, null
  br i1 %4, label %10, label %5

5:                                                ; preds = %1
  %6 = load ptr, ptr %2, align 8, !tbaa !7
  %7 = getelementptr inbounds nuw %struct.ossl_param_st, ptr %6, i32 0, i32 0
  %8 = load ptr, ptr %7, align 8, !tbaa !18
  %9 = icmp eq ptr %8, null
  br label %10

10:                                               ; preds = %5, %1
  %11 = phi i1 [ true, %1 ], [ %9, %5 ]
  %12 = zext i1 %11 to i32
  ret i32 %12
}

; Function Attrs: nounwind uwtable
define i32 @ossl_blake2b_set_ctx_params(ptr noundef %0, ptr noundef %1) #0 {
  %3 = alloca i32, align 4
  %4 = alloca ptr, align 8
  %5 = alloca ptr, align 8
  %6 = alloca i64, align 8
  %7 = alloca ptr, align 8
  %8 = alloca ptr, align 8
  %9 = alloca ptr, align 8
  %10 = alloca i32, align 4
  store ptr %0, ptr %4, align 8, !tbaa !3
  store ptr %1, ptr %5, align 8, !tbaa !7
  call void @llvm.lifetime.start.p0(i64 8, ptr %6) #5
  call void @llvm.lifetime.start.p0(i64 8, ptr %7) #5
  %11 = load ptr, ptr %4, align 8, !tbaa !3
  store ptr %11, ptr %7, align 8, !tbaa !29
  call void @llvm.lifetime.start.p0(i64 8, ptr %8) #5
  call void @llvm.lifetime.start.p0(i64 8, ptr %9) #5
  %12 = load ptr, ptr %7, align 8, !tbaa !29
  %13 = getelementptr inbounds nuw %struct.blake2b_md_data_st, ptr %12, i32 0, i32 0
  store ptr %13, ptr %9, align 8, !tbaa !31
  %14 = load ptr, ptr %9, align 8, !tbaa !31
  %15 = icmp eq ptr %14, null
  br i1 %15, label %16, label %17

16:                                               ; preds = %2
  store i32 0, ptr %3, align 4
  store i32 1, ptr %10, align 4
  br label %45

17:                                               ; preds = %2
  %18 = load ptr, ptr %5, align 8, !tbaa !7
  %19 = call i32 @ossl_param_is_empty(ptr noundef %18)
  %20 = icmp ne i32 %19, 0
  br i1 %20, label %21, label %22

21:                                               ; preds = %17
  store i32 1, ptr %3, align 4
  store i32 1, ptr %10, align 4
  br label %45

22:                                               ; preds = %17
  %23 = load ptr, ptr %5, align 8, !tbaa !7
  %24 = call ptr @OSSL_PARAM_locate_const(ptr noundef %23, ptr noundef @.str)
  store ptr %24, ptr %8, align 8, !tbaa !7
  %25 = load ptr, ptr %8, align 8, !tbaa !7
  %26 = icmp ne ptr %25, null
  br i1 %26, label %27, label %44

27:                                               ; preds = %22
  %28 = load ptr, ptr %8, align 8, !tbaa !7
  %29 = call i32 @OSSL_PARAM_get_size_t(ptr noundef %28, ptr noundef %6)
  %30 = icmp ne i32 %29, 0
  br i1 %30, label %32, label %31

31:                                               ; preds = %27
  call void @ERR_new()
  call void @ERR_set_debug(ptr noundef @.str.1, i32 noundef 198, ptr noundef @__func__.ossl_blake2b_set_ctx_params)
  call void (i32, i32, ptr, ...) @ERR_set_error(i32 noundef 57, i32 noundef 103, ptr noundef null)
  store i32 0, ptr %3, align 4
  store i32 1, ptr %10, align 4
  br label %45

32:                                               ; preds = %27
  %33 = load i64, ptr %6, align 8, !tbaa !22
  %34 = icmp ult i64 %33, 1
  br i1 %34, label %38, label %35

35:                                               ; preds = %32
  %36 = load i64, ptr %6, align 8, !tbaa !22
  %37 = icmp ugt i64 %36, 64
  br i1 %37, label %38, label %39

38:                                               ; preds = %35, %32
  call void @ERR_new()
  call void @ERR_set_debug(ptr noundef @.str.1, i32 noundef 198, ptr noundef @__func__.ossl_blake2b_set_ctx_params)
  call void (i32, i32, ptr, ...) @ERR_set_error(i32 noundef 57, i32 noundef 218, ptr noundef null)
  store i32 0, ptr %3, align 4
  store i32 1, ptr %10, align 4
  br label %45

39:                                               ; preds = %35
  %40 = load ptr, ptr %7, align 8, !tbaa !29
  %41 = getelementptr inbounds nuw %struct.blake2b_md_data_st, ptr %40, i32 0, i32 1
  %42 = load i64, ptr %6, align 8, !tbaa !22
  %43 = trunc i64 %42 to i8
  call void @ossl_blake2b_param_set_digest_length(ptr noundef %41, i8 noundef zeroext %43)
  br label %44

44:                                               ; preds = %39, %22
  store i32 1, ptr %3, align 4
  store i32 1, ptr %10, align 4
  br label %45

45:                                               ; preds = %44, %38, %31, %21, %16
  call void @llvm.lifetime.end.p0(i64 8, ptr %9) #5
  call void @llvm.lifetime.end.p0(i64 8, ptr %8) #5
  call void @llvm.lifetime.end.p0(i64 8, ptr %7) #5
  call void @llvm.lifetime.end.p0(i64 8, ptr %6) #5
  %46 = load i32, ptr %3, align 4
  ret i32 %46
}