; Function Attrs: nounwind uwtable
define range(i32 0, 2) i32 @ossl_blake2b_set_ctx_params(ptr noundef %0, ptr noundef %1) #1 {
  %3 = alloca i64, align 8
  call void @llvm.lifetime.start.p0(i64 8, ptr nonnull %3) #6
  %4 = icmp eq ptr %0, null
  br i1 %4, label %ossl_param_is_empty.exit.thread, label %5

5:                                                ; preds = %2
  %6 = icmp eq ptr %1, null
  br i1 %6, label %ossl_param_is_empty.exit.thread, label %ossl_param_is_empty.exit

ossl_param_is_empty.exit:                         ; preds = %5
  %7 = load ptr, ptr %1, align 8, !tbaa !3
  %.not = icmp eq ptr %7, null
  br i1 %.not, label %ossl_param_is_empty.exit.thread, label %8

8:                                                ; preds = %ossl_param_is_empty.exit
  %9 = tail call ptr @OSSL_PARAM_locate_const(ptr noundef nonnull %1, ptr noundef nonnull @.str) #6
  %.not12 = icmp eq ptr %9, null
  br i1 %.not12, label %ossl_param_is_empty.exit.thread, label %10

10:                                               ; preds = %8
  %11 = call i32 @OSSL_PARAM_get_size_t(ptr noundef nonnull %9, ptr noundef nonnull %3) #6
  %.not13 = icmp eq i32 %11, 0
  br i1 %.not13, label %12, label %13

12:                                               ; preds = %10
  call void @ERR_new() #6
  call void @ERR_set_debug(ptr noundef nonnull @.str.1, i32 noundef 198, ptr noundef nonnull @__func__.ossl_blake2b_set_ctx_params) #6
  call void (i32, i32, ptr, ...) @ERR_set_error(i32 noundef 57, i32 noundef 103, ptr noundef null) #6
  br label %ossl_param_is_empty.exit.thread

13:                                               ; preds = %10
  %14 = load i64, ptr %3, align 8, !tbaa !15
  %15 = add i64 %14, -65
  %or.cond = icmp ult i64 %15, -64
  br i1 %or.cond, label %16, label %17

16:                                               ; preds = %13
  call void @ERR_new() #6
  call void @ERR_set_debug(ptr noundef nonnull @.str.1, i32 noundef 198, ptr noundef nonnull @__func__.ossl_blake2b_set_ctx_params) #6
  call void (i32, i32, ptr, ...) @ERR_set_error(i32 noundef 57, i32 noundef 218, ptr noundef null) #6
  br label %ossl_param_is_empty.exit.thread

17:                                               ; preds = %13
  %18 = getelementptr inbounds nuw i8, ptr %0, i64 240
  %19 = trunc nuw nsw i64 %14 to i8
  call void @ossl_blake2b_param_set_digest_length(ptr noundef nonnull %18, i8 noundef zeroext %19) #6
  br label %ossl_param_is_empty.exit.thread

ossl_param_is_empty.exit.thread:                  ; preds = %5, %8, %17, %ossl_param_is_empty.exit, %2, %16, %12
  %.0 = phi i32 [ 0, %16 ], [ 0, %12 ], [ 0, %2 ], [ 1, %ossl_param_is_empty.exit ], [ 1, %17 ], [ 1, %8 ], [ 1, %5 ]
  call void @llvm.lifetime.end.p0(i64 8, ptr nonnull %3) #6
  ret i32 %.0
}